c__builtin__
set
p0
((lp1
I82834816
aI82810624
aI82833158
aI82817153
aI82806027
aI82804115
aI82803860
aI82803989
aI82805655
aI82822681
aI82806298
aI82827292
aI82803824
aI82804135
aI82805170
aI82831794
aI82818099
aI82805428
aI82827061
aI82803894
aI82804664
aI82808635
aI82804030
aI82827071
aI82804422
aI82834814
aI82819403
aI82812748
aI82825805
aI82846929
aI82818003
aI82827093
aI82803927
aI82827739
aI82841052
aI82827101
aI82816478
aI82838626
aI82810974
aI82820433
aI82827112
aI82832361
aI82827111
aI82805488
aI82834801
aI82803795
aI82804725
aI82818169
aI82827259
aI82835838
atp2
Rp3
.