c__builtin__
set
p0
((lp1
I82282503
aI80529418
aI82673676
aI78127122
aI82673689
aI82827292
aI82284574
aI82200608
aI82231330
aI79915047
aI79898669
aI82223156
aI78725175
aI79904832
aI82693472
aI79878211
aI82284613
aI78725190
aI79939658
aI82673743
aI78180024
aI80562260
aI82237526
aI82704740
aI78714970
aI82810974
aI80504927
aI80576615
aI82284651
aI82239597
aI78166127
aI82192500
aI81332927
aI79898748
aI81363071
aI82817153
aI80544790
aI80570514
aI81242270
aI82219167
aI79900836
aI78145222
aI78127132
aI78158013
aI81328160
aI80603330
aI79855820
aI80566306
aI79898833
aI81301715
aI81307868
aI78731491
aI78127339
aI78721270
aI80603384
aI82245885
aI81299713
aI78131459
aI82225412
aI81299719
aI80607498
aI80535842
aI82683266
aI81357083
aI78715170
aI78747950
aI82704688
aI79857981
aI82704710
aI78696503
aI82235734
aI81299812
aI78137707
aI81279349
aI82276727
aI80544831
aI82835838
aI80509312
aI79862145
aI81299842
aI78145926
aI82213270
aI82284954
aI82213275
aI79919517
aI79919518
aI82264483
aI82213286
aI78703005
aI82831794
aI80587189
aI82213305
aI78676410
aI80545183
aI80556476
aI80605629
aI82213314
aI81252380
aI82213327
aI82227665
aI78717394
aI80533974
aI82213337
aI82827739
aI82674152
aI78146025
aI82213356
aI79862254
aI81301999
aI79908948
aI80560635
aI82283015
aI78737928
aI81299980
aI81285646
aI78756370
aI79856149
aI82674199
aI81332767
aI78754339
aI81241180
aI82805170
aI78142007
aI78142008
aI79915578
aI78142015
aI82192960
aI78142018
aI82825805
aI78142035
aI78156373
aI78142041
aI78142045
aI82225765
aI81332838
aI82676333
aI78154350
aI81332851
aI82274935
aI79905405
aI79911551
aI82705027
aI82234820
aI81279643
aI78715549
aI82248358
aI82678445
aI82805428
aI78707391
aI82291393
aI81277635
aI78738134
aI81332958
aI81363682
aI79856357
aI79909609
aI78121706
aI81261291
aI81302254
aI82805488
aI79954675
aI81318650
aI80544895
aI78715647
aI80552742
aI82711343
aI82694965
aI82213692
aI82237001
aI78150484
aI79891292
aI79919971
aI82293604
aI82686828
aI82672786
aI82266993
aI82693952
aI81300360
aI82199440
aI80518034
aI82213780
aI82262933
aI82805655
aI80544674
aI82674596
aI81271718
aI78734248
aI78183343
aI82199473
aI82255006
aI82242494
aI81241034
aI82234530
aI82260942
aI82240465
aI81241042
aI82818003
aI81322964
aI78738394
aI79877083
aI79877084
aI78156765
aI82281439
aI82236384
aI79913955
aI82234534
aI82832361
aI81300458
aI79877106
aI78724948
aI79877116
aI81312773
aI78113799
aI78171145
aI79899658
aI79960092
aI82271250
aI78171158
aI82674713
aI79959071
aI80503846
aI80608295
aI80553004
aI80503853
aI82827101
aI82818099
aI78142516
aI81241144
aI78675003
aI82213951
aI80503874
aI80548932
aI78718026
aI82803795
aI78171226
aI82248796
aI82676829
aI82838626
aI82204519
aI82803824
aI78171250
aI80524405
aI82218102
aI82818169
aI78756988
aI80524415
aI82242688
aI82216069
aI82672780
aI80568514
aI82224273
aI82687122
aI82248851
aI82803860
aI82234526
aI82257058
aI80524451
aI82199716
aI79901862
aI82255020
aI82255023
aI82234547
aI82699444
aI82234549
aI82803894
aI82234558
aI82672838
aI82234567
aI79905993
aI82255052
aI82846929
aI81292498
aI80534739
aI78142678
aI82803927
aI82672858
aI78150876
aI79873251
aI82255076
aI82234602
aI82672875
aI78111980
aI82681069
aI80559343
aI82249939
aI78748916
aI79914239
aI78146823
aI82806027
aI82803989
aI80553240
aI82672926
aI82672931
aI82234664
aI82269487
aI79862664
aI82804030
aI82275650
aI82255171
aI78701896
aI82275662
aI82693456
aI82820433
aI78728530
aI81270099
aI80545109
aI78714767
aI82687328
aI81270114
aI82693480
aI82693482
aI82673006
aI82834801
aI78112114
aI82693493
aI82197878
aI82834814
aI82834816
aI80545154
aI79877355
aI78142853
aI78181768
aI82804115
aI81302767
aI82222494
aI82255263
aI81270178
aI82214308
aI82804135
aI80550322
aI78142899
aI81243573
aI78738871
aI82214336
aI78149060
aI78715126
aI82271686
aI80551370
aI80532941
aI81271373
aI82263505
aI82681300
aI82841052
aI82816478
aI82191847
aI79912424
aI78728684
aI81260019
aI81255928
aI81313289
aI78693898
aI79926803
aI81303060
aI78157335
aI82822681
aI82806298
aI82191901
aI82673182
aI80504355
aI78143019
aI78136888
aI82212425
aI79889996
aI82275924
aI82255449
aI81270363
aI80545372
aI80594544
aI82695810
aI82235013
aI82673296
aI78136995
aI82681524
aI78143160
aI81309373
aI80545476
aI82276037
aI82804422
aI82192076
aI81299746
aI78145235
aI78722775
aI82673372
aI79898333
aI78722786
aI82236029
aI78149360
aI82704116
aI79898357
aI78673655
aI79898361
aI78673658
aI82810624
aI80527108
aI82833158
aI79888138
aI80541452
aI79898389
aI78128923
aI78673695
aI78673697
aI82687779
aI82216753
aI82220852
aI82827061
aI82247480
aI82298682
aI82808635
aI82827071
aI79898432
aI78731080
aI82192201
aI82812748
aI82685776
aI79910740
aI82827093
aI78675803
aI80574301
aI79877093
aI81315304
aI82827111
aI82827112
aI78708587
aI82673522
aI82229120
aI78694888
aI78714760
aI80551823
aI78694288
aI82693443
aI82673558
aI78714775
aI78157723
aI78698413
aI82804664
aI82819403
aI78673862
aI79922139
aI78127058
aI78720979
aI78714842
aI78127071
aI82249697
aI82687980
aI82681839
aI80592880
aI82804725
aI82827259
aI78735356
aI82284542
atp2
Rp3
.